TN:
SF:/home/sound/pid_controller/app/PIDcontroller.cpp
FN:10,_ZN13PIDcontrollerC2Edddd
FN:17,_ZN13PIDcontroller17setActualVelocityEd
FN:27,_ZN13PIDcontroller7computeEd
FN:40,_ZN13PIDcontroller5resetEv
FN:49,_ZNK13PIDcontroller5getKpEv
FN:57,_ZNK13PIDcontroller5getKiEv
FN:65,_ZNK13PIDcontroller5getKdEv
FN:73,_ZNK13PIDcontroller17getActualVelocityEv
FN:81,_ZNK13PIDcontroller12getDeltaTimeEv
FNDA:2,_ZNK13PIDcontroller5getKiEv
FNDA:0,_ZNK13PIDcontroller12getDeltaTimeEv
FNDA:2,_ZN13PIDcontroller5resetEv
FNDA:6,_ZN13PIDcontroller17setActualVelocityEd
FNDA:2,_ZNK13PIDcontroller5getKdEv
FNDA:2,_ZNK13PIDcontroller5getKpEv
FNDA:8,_ZN13PIDcontrollerC2Edddd
FNDA:2,_ZNK13PIDcontroller17getActualVelocityEv
FNDA:6,_ZN13PIDcontroller7computeEd
FNF:9
FNH:8
DA:10,8
DA:11,8
DA:17,6
DA:18,6
DA:19,6
DA:27,6
DA:31,6
DA:34,6
DA:40,2
DA:41,2
DA:42,2
DA:43,2
DA:49,2
DA:50,2
DA:57,2
DA:58,2
DA:65,2
DA:66,2
DA:73,2
DA:74,2
DA:81,0
DA:82,0
LF:22
LH:20
end_of_record
TN:
SF:/home/sound/pid_controller/build/_deps/googletest-src/googletest/include/gtest/gtest-assertion-result.h
FN:174,_ZNK7testing15AssertionResultcvbEv
FN:183,_ZNK7testing15AssertionResult7messageEv
FN:187,_ZNK7testing15AssertionResult15failure_messageEv
FNDA:12,_ZNK7testing15AssertionResult15failure_messageEv
FNDA:12,_ZNK7testing15AssertionResultcvbEv
FNDA:12,_ZNK7testing15AssertionResult7messageEv
FNF:3
FNH:3
DA:174,12
DA:183,12
DA:184,12
DA:187,12
LF:4
LH:4
end_of_record
TN:
SF:/home/sound/pid_controller/build/_deps/googletest-src/googletest/include/gtest/gtest-printers.h
FN:357,_ZN7testing8internal19FormatForComparisonIddE6FormatB5cxx11ERKd
FN:437,_ZN7testing8internal33FormatForComparisonFailureMessageIddEENSt7__cxx1112basic_stringIcSt11char_traitsIcESaIcEEERKT_RKT0_
FN:529,_ZN7testing8internal21AppropriateResolutionIdEEiT_
FN:586,_ZN7testing8internal7PrintToEdPSo
FN:799,_ZN7testing8internal16UniversalPrinterIdE5PrintERKdPSo
FN:989,_ZN7testing8internal21UniversalTersePrinterIdE5PrintERKdPSo
FN:1108,_ZN7testing8internal14UniversalPrintIdEEvRKT_PSo
FN:1148,_ZN7testing13PrintToStringIdEENSt7__cxx1112basic_stringIcSt11char_traitsIcESaIcEEERKT_
FNDA:24,_ZN7testing8internal16UniversalPrinterIdE5PrintERKdPSo
FNDA:24,_ZN7testing8internal21UniversalTersePrinterIdE5PrintERKdPSo
FNDA:24,_ZN7testing13PrintToStringIdEENSt7__cxx1112basic_stringIcSt11char_traitsIcESaIcEEERKT_
FNDA:24,_ZN7testing8internal33FormatForComparisonFailureMessageIddEENSt7__cxx1112basic_stringIcSt11char_traitsIcESaIcEEERKT_RKT0_
FNDA:24,_ZN7testing8internal7PrintToEdPSo
FNDA:24,_ZN7testing8internal19FormatForComparisonIddE6FormatB5cxx11ERKd
FNDA:24,_ZN7testing8internal14UniversalPrintIdEEvRKT_PSo
FNDA:24,_ZN7testing8internal21AppropriateResolutionIdEEiT_
FNF:8
FNH:8
DA:357,24
DA:358,24
DA:437,24
DA:439,24
DA:529,24
DA:530,24
DA:531,24
DA:533,24
DA:534,24
DA:535,24
DA:536,0
DA:537,24
DA:538,0
DA:539,24
DA:540,0
DA:541,24
DA:542,2
DA:543,22
DA:544,6
DA:545,16
DA:546,6
DA:547,10
DA:548,6
DA:549,4
DA:550,0
DA:551,4
DA:552,0
DA:553,4
DA:554,0
DA:556,24
DA:559,24
DA:560,0
DA:561,0
DA:562,0
DA:563,0
DA:564,0
DA:565,0
DA:566,0
DA:567,0
DA:568,0
DA:569,0
DA:571,0
DA:574,0
DA:576,0
DA:586,24
DA:587,24
DA:588,24
DA:589,24
DA:590,24
DA:591,24
DA:799,24
DA:808,24
DA:809,24
DA:989,24
DA:990,24
DA:991,24
DA:1108,24
DA:1112,24
DA:1113,24
DA:1148,24
DA:1149,24
DA:1150,24
DA:1151,48
DA:1152,24
LF:64
LH:45
end_of_record
TN:
SF:/home/sound/pid_controller/build/_deps/googletest-src/googletest/include/gtest/gtest.h
FN:256,_ZN7testing4Test14SetUpTestSuiteEv
FN:264,_ZN7testing4Test17TearDownTestSuiteEv
FN:269,_ZN7testing4Test16TearDownTestCaseEv
FN:270,_ZN7testing4Test13SetUpTestCaseEv
FN:357,_ZN7testing4Test5SetupEv
FN:1359,_ZN7testing8internal18CmpHelperEQFailureIddEENS_15AssertionResultEPKcS4_RKT_RKT0_
FN:1376,_ZN7testing8internal11CmpHelperEQIddEENS_15AssertionResultEPKcS4_RKT_RKT0_
FN:1395,_ZN7testing8internal8EqHelper7CompareIddLPv0EEENS_15AssertionResultEPKcS6_RKT_RKT0_
FN:2317,_Z13RUN_ALL_TESTSv
FNDA:0,_ZN7testing4Test13SetUpTestCaseEv
FNDA:12,_ZN7testing8internal11CmpHelperEQIddEENS_15AssertionResultEPKcS4_RKT_RKT0_
FNDA:0,_ZN7testing4Test14SetUpTestSuiteEv
FNDA:0,_ZN7testing4Test5SetupEv
FNDA:12,_ZN7testing8internal18CmpHelperEQFailureIddEENS_15AssertionResultEPKcS4_RKT_RKT0_
FNDA:8,_Z13RUN_ALL_TESTSv
FNDA:0,_ZN7testing4Test16TearDownTestCaseEv
FNDA:0,_ZN7testing4Test17TearDownTestSuiteEv
FNDA:12,_ZN7testing8internal8EqHelper7CompareIddLPv0EEENS_15AssertionResultEPKcS6_RKT_RKT0_
FNF:9
FNH:4
DA:256,0
DA:264,0
DA:269,0
DA:270,0
DA:357,0
DA:1359,12
DA:1364,12
DA:1376,12
DA:1379,12
DA:1380,0
DA:1383,12
DA:1395,12
DA:1398,12
DA:2317,8
LF:14
LH:8
end_of_record
TN:
SF:/home/sound/pid_controller/build/_deps/googletest-src/googletest/include/gtest/internal/gtest-internal.h
FN:438,_ZN7testing8internal15TestFactoryBaseD0Ev
FN:438,_ZN7testing8internal15TestFactoryBaseD2Ev
FN:445,_ZN7testing8internal15TestFactoryBaseC2Ev
FN:457,_ZN7testing8internal15TestFactoryImplI44PIDcontrollerTest_TestSetActualVelocity_TestE10CreateTestEv
FN:457,_ZN7testing8internal15TestFactoryImplI41PIDcontrollerTest_TestInitialization_TestE10CreateTestEv
FN:457,_ZN7testing8internal15TestFactoryImplI34PIDcontrollerTest_TestCompute_TestE10CreateTestEv
FN:457,_ZN7testing8internal15TestFactoryImplI32PIDcontrollerTest_TestReset_TestE10CreateTestEv
FN:478,_ZN7testing8internal12CodeLocationC2ERKNSt7__cxx1112basic_stringIcSt11char_traitsIcESaIcEEEi
FN:491,_ZN7testing8internal19GetNotDefaultOrNullEPFvvES2_
FN:506,_ZN7testing8internal16SuiteApiResolverINS_4TestEE19GetSetUpCaseOrSuiteEPKci
FN:527,_ZN7testing8internal16SuiteApiResolverINS_4TestEE22GetTearDownCaseOrSuiteEPKci
FNDA:32,_ZN7testing8internal16SuiteApiResolverINS_4TestEE22GetTearDownCaseOrSuiteEPKci
FNDA:32,_ZN7testing8internal15TestFactoryBaseC2Ev
FNDA:2,_ZN7testing8internal15TestFactoryImplI34PIDcontrollerTest_TestCompute_TestE10CreateTestEv
FNDA:2,_ZN7testing8internal15TestFactoryImplI41PIDcontrollerTest_TestInitialization_TestE10CreateTestEv
FNDA:2,_ZN7testing8internal15TestFactoryImplI44PIDcontrollerTest_TestSetActualVelocity_TestE10CreateTestEv
FNDA:32,_ZN7testing8internal16SuiteApiResolverINS_4TestEE19GetSetUpCaseOrSuiteEPKci
FNDA:128,_ZN7testing8internal19GetNotDefaultOrNullEPFvvES2_
FNDA:32,_ZN7testing8internal15TestFactoryBaseD2Ev
FNDA:32,_ZN7testing8internal12CodeLocationC2ERKNSt7__cxx1112basic_stringIcSt11char_traitsIcESaIcEEEi
FNDA:2,_ZN7testing8internal15TestFactoryImplI32PIDcontrollerTest_TestReset_TestE10CreateTestEv
FNDA:0,_ZN7testing8internal15TestFactoryBaseD0Ev
FNF:11
FNH:10
DA:438,32
DA:445,32
DA:457,8
DA:478,32
DA:479,32
DA:491,128
DA:493,128
DA:506,32
DA:510,32
DA:512,32
DA:514,32
DA:517,0
DA:519,32
DA:527,32
DA:531,32
DA:533,32
DA:535,32
DA:538,0
DA:540,32
LF:19
LH:17
end_of_record
TN:
SF:/home/sound/pid_controller/build/_deps/googletest-src/googletest/include/gtest/internal/gtest-port.h
FN:1042,_ZN7testing8internal8GTestLog9GetStreamEv
FNDA:0,_ZN7testing8internal8GTestLog9GetStreamEv
FNF:1
FNH:0
DA:1042,0
LF:1
LH:0
end_of_record
