TN:
SF:/home/sound/pid_controller/include/lib.hpp
FN:5,_Z5dummyv
FNDA:0,_Z5dummyv
FNF:1
FNH:0
DA:5,0
DA:6,0
DA:7,0
LF:3
LH:0
end_of_record
TN:
SF:/home/sound/pid_controller/libs/lib1/src.cpp
FN:1,_Z12my_function1i
FNDA:1,_Z12my_function1i
FNF:1
FNH:1
DA:1,1
DA:3,1
LF:2
LH:2
end_of_record
TN:
SF:/home/sound/pid_controller/libs/lib2/src.cpp
FN:1,_Z12my_function2f
FNDA:0,_Z12my_function2f
FNF:1
FNH:0
DA:1,0
DA:3,0
LF:2
LH:0
end_of_record
TN:
SF:/home/sound/pid_controller/test/main.cpp
FN:6,_Z17function_not_usedv
FN:11,main
FNDA:2,main
FNDA:0,_Z17function_not_usedv
FNF:2
FNH:1
DA:6,0
DA:7,0
DA:8,0
DA:9,0
DA:11,2
DA:12,2
DA:13,2
LF:7
LH:3
end_of_record
TN:
SF:/home/sound/pid_controller/test/test.cpp
FN:5,_ZN32dummy_test_this_should_pass_TestD0Ev
FN:5,_ZN32dummy_test_this_should_pass_TestC2Ev
FN:5,_ZN32dummy_test_this_should_pass_TestD2Ev
FN:5,_ZN32dummy_test_this_should_pass_Test8TestBodyEv
FN:9,_ZN36dummy_test_this_should_pass_too_Test8TestBodyEv
FN:9,_ZN36dummy_test_this_should_pass_too_TestC2Ev
FN:9,_ZN36dummy_test_this_should_pass_too_TestD2Ev
FN:9,_ZN36dummy_test_this_should_pass_too_TestD0Ev
FNDA:1,_ZN36dummy_test_this_should_pass_too_TestC2Ev
FNDA:1,_ZN36dummy_test_this_should_pass_too_TestD2Ev
FNDA:1,_ZN36dummy_test_this_should_pass_too_Test8TestBodyEv
FNDA:1,_ZN32dummy_test_this_should_pass_TestC2Ev
FNDA:1,_ZN32dummy_test_this_should_pass_TestD0Ev
FNDA:1,_ZN32dummy_test_this_should_pass_TestD2Ev
FNDA:1,_ZN36dummy_test_this_should_pass_too_TestD0Ev
FNDA:1,_ZN32dummy_test_this_should_pass_Test8TestBodyEv
FNF:8
FNH:8
DA:5,4
DA:6,1
DA:7,1
DA:9,4
DA:10,1
DA:11,1
LF:6
LH:6
end_of_record
